target datalayout = "e-m:e-p270:32:32-p271:32:32-p272:64:64-i64:64-i128:128-f80:128-n8:16:32:64-S128"
target triple = "x86_64-pc-linux-gnu"

%struct.userdata_t = type { %struct.agxbuf, %struct.agxbuf, %struct.agxbuf, i8, i32, i32, i8, i8, ptr }
%struct.agxbuf = type { %union.anon }
%union.anon = type { %struct.anon }
%struct.anon = type { ptr, i64, i64, [7 x i8], i8 }

@Current_class = internal global i32 0, align 4
@root = internal global ptr null, align 8
@G = internal global ptr null, align 8
@E = internal global ptr null, align 8
@.str.28 = private unnamed_addr constant [5 x i8] c"name\00", align 1
@defval = internal global ptr @.str.4, align 8
@N = internal global ptr null, align 8

; Function Attrs: nounwind uwtable
define internal void @setNodeAttr(ptr noundef %0, ptr noundef %1, ptr noundef %2, ptr noundef %3, i1 noundef zeroext %4) #0 {
  %6 = alloca ptr, align 8
  %7 = alloca ptr, align 8
  %8 = alloca ptr, align 8
  %9 = alloca ptr, align 8
  %10 = alloca i8, align 1
  %11 = alloca ptr, align 8
  store ptr %0, ptr %6, align 8, !tbaa !44
  store ptr %1, ptr %7, align 8, !tbaa !30
  store ptr %2, ptr %8, align 8, !tbaa !30
  store ptr %3, ptr %9, align 8, !tbaa !28
  %12 = zext i1 %4 to i8
  store i8 %12, ptr %10, align 1, !tbaa !64
  call void @llvm.lifetime.start.p0(i64 8, ptr %11) #14
  %13 = load ptr, ptr %7, align 8, !tbaa !30
  %14 = call i32 @strcmp(ptr noundef %13, ptr noundef @.str.28) #16
  %15 = icmp eq i32 %14, 0
  br i1 %15, label %16, label %22

16:                                               ; preds = %5
  %17 = load ptr, ptr %9, align 8, !tbaa !28
  %18 = getelementptr inbounds nuw %struct.userdata_t, ptr %17, i32 0, i32 8
  %19 = load ptr, ptr %18, align 8, !tbaa !29
  %20 = load ptr, ptr %6, align 8, !tbaa !44
  %21 = load ptr, ptr %8, align 8, !tbaa !30
  call void @setName(ptr noundef %19, ptr noundef %20, ptr noundef %21)
  br label %47

22:                                               ; preds = %5
  %23 = load ptr, ptr @root, align 8, !tbaa !13
  %24 = load ptr, ptr %7, align 8, !tbaa !30
  %25 = call ptr @agattr(ptr noundef %23, i32 noundef 1, ptr noundef %24, ptr noundef null)
  store ptr %25, ptr %11, align 8, !tbaa !58
  %26 = load ptr, ptr %11, align 8, !tbaa !58
  %27 = icmp ne ptr %26, null
  br i1 %27, label %33, label %28

28:                                               ; preds = %22
  %29 = load ptr, ptr @root, align 8, !tbaa !13
  %30 = load ptr, ptr %7, align 8, !tbaa !30
  %31 = load ptr, ptr @defval, align 8, !tbaa !30
  %32 = call ptr @agattr(ptr noundef %29, i32 noundef 1, ptr noundef %30, ptr noundef %31)
  store ptr %32, ptr %11, align 8, !tbaa !58
  br label %33

33:                                               ; preds = %28, %22
  %34 = load i8, ptr %10, align 1, !tbaa !64, !range !45, !noundef !46
  %35 = trunc i8 %34 to i1
  br i1 %35, label %36, label %41

36:                                               ; preds = %33
  %37 = load ptr, ptr %6, align 8, !tbaa !44
  %38 = load ptr, ptr %11, align 8, !tbaa !58
  %39 = load ptr, ptr %8, align 8, !tbaa !30
  %40 = call i32 @agxset_html(ptr noundef %37, ptr noundef %38, ptr noundef %39)
  br label %46

41:                                               ; preds = %33
  %42 = load ptr, ptr %6, align 8, !tbaa !44
  %43 = load ptr, ptr %11, align 8, !tbaa !58
  %44 = load ptr, ptr %8, align 8, !tbaa !30
  %45 = call i32 @agxset(ptr noundef %42, ptr noundef %43, ptr noundef %44)
  br label %46

46:                                               ; preds = %41, %36
  br label %47

47:                                               ; preds = %46, %16
  call void @llvm.lifetime.end.p0(i64 8, ptr %11) #14
  ret void
}

; Function Attrs: nounwind uwtable
define internal void @setAttr(ptr noundef %0, ptr noundef %1, ptr noundef %2, i1 noundef zeroext %3) #0 {
  %5 = alloca ptr, align 8
  %6 = alloca ptr, align 8
  %7 = alloca ptr, align 8
  %8 = alloca i8, align 1
  store ptr %0, ptr %5, align 8, !tbaa !30
  store ptr %1, ptr %6, align 8, !tbaa !30
  store ptr %2, ptr %7, align 8, !tbaa !28
  %9 = zext i1 %3 to i8
  store i8 %9, ptr %8, align 1, !tbaa !64
  %10 = load i32, ptr @Current_class, align 4, !tbaa !11
  switch i32 %10, label %30 [
    i32 1, label %11
    i32 2, label %16
    i32 3, label %23
  ]

11:                                               ; preds = %4
  %12 = load ptr, ptr @G, align 8, !tbaa !13
  %13 = load ptr, ptr %5, align 8, !tbaa !30
  %14 = load ptr, ptr %6, align 8, !tbaa !30
  %15 = load ptr, ptr %7, align 8, !tbaa !28
  call void @setGraphAttr(ptr noundef %12, ptr noundef %13, ptr noundef %14, ptr noundef %15)
  br label %31

16:                                               ; preds = %4
  %17 = load ptr, ptr @N, align 8, !tbaa !44
  %18 = load ptr, ptr %5, align 8, !tbaa !30
  %19 = load ptr, ptr %6, align 8, !tbaa !30
  %20 = load ptr, ptr %7, align 8, !tbaa !28
  %21 = load i8, ptr %8, align 1, !tbaa !64, !range !45, !noundef !46
  %22 = trunc i8 %21 to i1
  call void @setNodeAttr(ptr noundef %17, ptr noundef %18, ptr noundef %19, ptr noundef %20, i1 noundef zeroext %22)
  br label %31

23:                                               ; preds = %4
  %24 = load ptr, ptr @E, align 8, !tbaa !34
  %25 = load ptr, ptr %5, align 8, !tbaa !30
  %26 = load ptr, ptr %6, align 8, !tbaa !30
  %27 = load ptr, ptr %7, align 8, !tbaa !28
  %28 = load i8, ptr %8, align 1, !tbaa !64, !range !45, !noundef !46
  %29 = trunc i8 %28 to i1
  call void @setEdgeAttr(ptr noundef %24, ptr noundef %25, ptr noundef %26, ptr noundef %27, i1 noundef zeroext %29)
  br label %31

30:                                               ; preds = %4
  br label %31

31:                                               ; preds = %30, %23, %16, %11
  ret void
}