; Function Attrs: nounwind uwtable
define internal fastcc void @setAttr(ptr noundef %0, ptr noundef %1, ptr noundef readonly captures(none) %2, i1 noundef zeroext %3) unnamed_addr #0 {
  %5 = load i32, ptr @Current_class, align 4, !tbaa !17
  switch i32 %5, label %setNodeAttr.exit [
    i32 1, label %6
    i32 2, label %8
    i32 3, label %26
  ]

6:                                                ; preds = %4
  %7 = load ptr, ptr @G, align 8, !tbaa !18
  tail call fastcc void @setGraphAttr(ptr noundef %7, ptr noundef %0, ptr noundef %1, ptr noundef %2)
  br label %setNodeAttr.exit

8:                                                ; preds = %4
  %9 = load ptr, ptr @N, align 8, !tbaa !35
  %10 = tail call i32 @strcmp(ptr noundef nonnull dereferenceable(1) %0, ptr noundef nonnull dereferenceable(5) @.str.28) #27
  %11 = icmp eq i32 %10, 0
  br i1 %11, label %12, label %15

12:                                               ; preds = %8
  %13 = getelementptr inbounds nuw i8, ptr %2, i64 112
  %14 = load ptr, ptr %13, align 8, !tbaa !11
  tail call fastcc void @setName(ptr noundef %14, ptr noundef %9, ptr noundef %1)
  br label %setNodeAttr.exit

15:                                               ; preds = %8
  %16 = load ptr, ptr @root, align 8, !tbaa !18
  %17 = tail call ptr @agattr(ptr noundef %16, i32 noundef 1, ptr noundef nonnull %0, ptr noundef null) #24
  %.not.i = icmp eq ptr %17, null
  br i1 %.not.i, label %18, label %21

18:                                               ; preds = %15
  %19 = load ptr, ptr @root, align 8, !tbaa !18
  %20 = tail call ptr @agattr(ptr noundef %19, i32 noundef 1, ptr noundef nonnull %0, ptr noundef nonnull @.str.4) #24
  br label %21

21:                                               ; preds = %18, %15
  %.0.i = phi ptr [ %17, %15 ], [ %20, %18 ]
  br i1 %3, label %22, label %24

22:                                               ; preds = %21
  %23 = tail call i32 @agxset_html(ptr noundef %9, ptr noundef %.0.i, ptr noundef %1) #24
  br label %setNodeAttr.exit

24:                                               ; preds = %21
  %25 = tail call i32 @agxset(ptr noundef %9, ptr noundef %.0.i, ptr noundef %1) #24
  br label %setNodeAttr.exit

26:                                               ; preds = %4
  %27 = load ptr, ptr @E, align 8, !tbaa !45
  tail call fastcc void @setEdgeAttr(ptr noundef %27, ptr noundef %0, ptr noundef %1, ptr noundef %2, i1 noundef zeroext %3)
  br label %setNodeAttr.exit

setNodeAttr.exit:                                 ; preds = %24, %22, %12, %4, %26, %6
  ret void
}